; Function Attrs: mustprogress nofree norecurse nosync nounwind willreturn memory(none) uwtable
define noundef nonnull ptr @_ZN4LIEF2PE9to_stringENS0_17CHPEMetadataARM6413range_entry_t4TYPEE(i32 noundef %0) local_unnamed_addr #3 {
  %2 = icmp ult i32 %0, 3
  br i1 %2, label %switch.lookup, label %4

switch.lookup:                                    ; preds = %1
  %3 = zext nneg i32 %0 to i64
  %switch.gep = getelementptr inbounds nuw [3 x ptr], ptr @switch.table._ZN4LIEF2PE9to_stringENS0_17CHPEMetadataARM6413range_entry_t4TYPEE, i64 0, i64 %3
  %switch.load = load ptr, ptr %switch.gep, align 8
  br label %4

4:                                                ; preds = %1, %switch.lookup
  %.0 = phi ptr [ %switch.load, %switch.lookup ], [ @.str.51, %1 ]
  ret ptr %.0
}